target datalayout = "e-m:e-p270:32:32-p271:32:32-p272:64:64-i64:64-i128:128-f80:128-n8:16:32:64-S128"
target triple = "x86_64-pc-linux-gnu"

%struct.cache_time = type { i32, i32 }
%struct.object_id = type { [32 x i8], i32 }
%struct.cache_entry = type { %struct.hashmap_entry, %struct.stat_data, i32, i32, i32, i32, i32, %struct.object_id, [0 x i8] }
%struct.hashmap_entry = type { ptr, i32 }
%struct.stat_data = type { %struct.cache_time, %struct.cache_time, i32, i32, i32, i32, i32 }
%struct.stat = type { i64, i64, i64, i32, i32, i32, i32, i64, i64, i64, i64, %struct.timespec, %struct.timespec, %struct.timespec, [3 x i64] }
%struct.timespec = type { i64, i64 }

@trust_executable_bit = external global i32, align 4
@has_symlinks = external global i32, align 4
@.str.18 = private unnamed_addr constant [13 x i8] c"read-cache.c\00", align 1
@.str.51 = private unnamed_addr constant [24 x i8] c"unsupported ce_mode: %o\00", align 1

; Function Attrs: nounwind uwtable
define internal i32 @st_mode_from_ce(ptr noundef %0) #0 {
  %2 = alloca i32, align 4
  %3 = alloca ptr, align 8
  store ptr %0, ptr %3, align 8, !tbaa !29
  %4 = load ptr, ptr %3, align 8, !tbaa !29
  %5 = getelementptr inbounds nuw %struct.cache_entry, ptr %4, i32 0, i32 2
  %6 = load i32, ptr %5, align 4, !tbaa !9
  %7 = and i32 %6, 61440
  switch i32 %7, label %26 [
    i32 40960, label %8
    i32 32768, label %12
    i32 57344, label %21
    i32 16384, label %22
  ]

8:                                                ; preds = %1
  %9 = load i32, ptr @has_symlinks, align 4, !tbaa !9
  %10 = icmp ne i32 %9, 0
  %11 = select i1 %10, i32 40960, i32 33188
  store i32 %11, ptr %2, align 4
  br label %30

12:                                               ; preds = %1
  %13 = load ptr, ptr %3, align 8, !tbaa !29
  %14 = getelementptr inbounds nuw %struct.cache_entry, ptr %13, i32 0, i32 2
  %15 = load i32, ptr %14, align 4, !tbaa !9
  %16 = load i32, ptr @trust_executable_bit, align 4, !tbaa !9
  %17 = icmp ne i32 %16, 0
  %18 = select i1 %17, i32 493, i32 420
  %19 = and i32 %15, %18
  %20 = or i32 %19, 32768
  store i32 %20, ptr %2, align 4
  br label %30

21:                                               ; preds = %1
  store i32 16877, ptr %2, align 4
  br label %30

22:                                               ; preds = %1
  %23 = load ptr, ptr %3, align 8, !tbaa !29
  %24 = getelementptr inbounds nuw %struct.cache_entry, ptr %23, i32 0, i32 2
  %25 = load i32, ptr %24, align 4, !tbaa !9
  store i32 %25, ptr %2, align 4
  br label %30

26:                                               ; preds = %1
  %27 = load ptr, ptr %3, align 8, !tbaa !29
  %28 = getelementptr inbounds nuw %struct.cache_entry, ptr %27, i32 0, i32 2
  %29 = load i32, ptr %28, align 4, !tbaa !9
  call void (ptr, i32, ptr, ...) @BUG_fl(ptr noundef @.str.18, i32 noundef 217, ptr noundef @.str.51, i32 noundef %29) #14
  unreachable

30:                                               ; preds = %22, %21, %12, %8
  %31 = load i32, ptr %2, align 4
  ret i32 %31
}

; Function Attrs: nounwind uwtable
define dso_local i32 @fake_lstat(ptr noundef %0, ptr noundef %1) #0 {
  %3 = alloca ptr, align 8
  %4 = alloca ptr, align 8
  store ptr %0, ptr %3, align 8, !tbaa !29
  store ptr %1, ptr %4, align 8, !tbaa !36
  %5 = load ptr, ptr %3, align 8, !tbaa !29
  %6 = getelementptr inbounds nuw %struct.cache_entry, ptr %5, i32 0, i32 1
  %7 = load ptr, ptr %4, align 8, !tbaa !36
  call void @fake_lstat_data(ptr noundef %6, ptr noundef %7)
  %8 = load ptr, ptr %3, align 8, !tbaa !29
  %9 = call i32 @st_mode_from_ce(ptr noundef %8)
  %10 = load ptr, ptr %4, align 8, !tbaa !36
  %11 = getelementptr inbounds nuw %struct.stat, ptr %10, i32 0, i32 3
  store i32 %9, ptr %11, align 8, !tbaa !38
  ret i32 0
}