; Function Attrs: nounwind uwtable
define dso_local noundef i32 @fake_lstat(ptr noundef %0, ptr noundef %1) local_unnamed_addr #0 {
  %3 = getelementptr inbounds nuw i8, ptr %0, i64 16
  tail call void @fake_lstat_data(ptr noundef nonnull %3, ptr noundef %1) #30
  %4 = getelementptr i8, ptr %0, i64 52
  %.val = load i32, ptr %4, align 4, !tbaa !32
  %5 = and i32 %.val, 61440
  %6 = add nsw i32 %5, -16384
  %7 = tail call i32 @llvm.fshl.i32(i32 %6, i32 %6, i32 19)
  switch i32 %7, label %17 [
    i32 3, label %8
    i32 2, label %11
    i32 5, label %st_mode_from_ce.exit
    i32 0, label %16
  ]

8:                                                ; preds = %2
  %9 = load i32, ptr @has_symlinks, align 4, !tbaa !32
  %.not4.i = icmp eq i32 %9, 0
  %10 = select i1 %.not4.i, i32 33188, i32 40960
  br label %st_mode_from_ce.exit

11:                                               ; preds = %2
  %12 = load i32, ptr @trust_executable_bit, align 4, !tbaa !32
  %.not.i = icmp eq i32 %12, 0
  %13 = select i1 %.not.i, i32 420, i32 493
  %14 = and i32 %13, %.val
  %15 = or disjoint i32 %14, 32768
  br label %st_mode_from_ce.exit

16:                                               ; preds = %2
  br label %st_mode_from_ce.exit

17:                                               ; preds = %2
  tail call void (ptr, i32, ptr, ...) @BUG_fl(ptr noundef nonnull @.str.18, i32 noundef 217, ptr noundef nonnull @.str.51, i32 noundef %.val) #31
  unreachable

st_mode_from_ce.exit:                             ; preds = %2, %8, %11, %16
  %.0.i = phi i32 [ %.val, %16 ], [ %15, %11 ], [ %10, %8 ], [ 16877, %2 ]
  %18 = getelementptr inbounds nuw i8, ptr %1, i64 24
  store i32 %.0.i, ptr %18, align 8, !tbaa !42
  ret i32 0
}